; Function Attrs: nounwind uwtable
define internal i32 @dissect_snmp_SnmpEngineID(i1 noundef zeroext %0, ptr noundef %1, i32 noundef %2, ptr noundef %3, ptr noundef %4, i32 noundef %5) #0 {
  %7 = alloca ptr, align 8
  store ptr null, ptr %7, align 8
  %8 = call i32 @dissect_ber_octet_string(i1 noundef zeroext %0, ptr noundef %3, ptr noundef %4, ptr noundef %1, i32 noundef %2, i32 noundef %5, ptr noundef nonnull %7) #11
  %9 = load ptr, ptr %7, align 8
  %.not = icmp eq ptr %9, null
  br i1 %.not, label %20, label %10

10:                                               ; preds = %6
  %11 = getelementptr inbounds nuw i8, ptr %3, i64 24
  %12 = load ptr, ptr %11, align 8
  %13 = load i32, ptr @ett_engineid, align 4
  %14 = call ptr @proto_item_add_subtree(ptr noundef %12, i32 noundef %13) #11
  %15 = getelementptr inbounds nuw i8, ptr %3, i64 16
  %16 = load ptr, ptr %15, align 8
  %17 = load ptr, ptr %7, align 8
  %18 = call i32 @tvb_reported_length_remaining(ptr noundef %17, i32 noundef 0) #11
  %19 = call i32 @dissect_snmp_engineid(ptr noundef %14, ptr noundef %16, ptr noundef %17, i32 noundef 0, i32 noundef %18)
  br label %20

20:                                               ; preds = %10, %6
  ret i32 %8
}